target datalayout = "e-m:e-p270:32:32-p271:32:32-p272:64:64-i64:64-i128:128-f80:128-n8:16:32:64-S128"
target triple = "x86_64-pc-linux-gnu"

@.str.1 = private unnamed_addr constant [101 x i8] c"generated/home/dtcxzyw/WorkSpace/Projects/compilers/llvm-opt-benchmark/bench/hdf5/hdf5/src/H5Gname.c\00", align 1
@H5E_SYM_g = external global i64, align 8
@__func__.H5G__build_fullpath = private unnamed_addr constant [20 x i8] c"H5G__build_fullpath\00", align 1
@H5E_CANTCREATE_g = external global i64, align 8
@.str.16 = private unnamed_addr constant [32 x i8] c"can't create ref-counted string\00", align 1

; Function Attrs: nounwind uwtable
define internal ptr @H5G__build_fullpath(ptr noundef %0, ptr noundef %1) #0 {
  %3 = alloca ptr, align 8
  %4 = alloca ptr, align 8
  %5 = alloca ptr, align 8
  %6 = alloca i8, align 1
  store ptr %0, ptr %3, align 8
  store ptr %1, ptr %4, align 8
  store ptr null, ptr %5, align 8
  store i8 0, ptr %6, align 1
  %7 = load ptr, ptr %3, align 8
  %8 = call ptr @H5RS_create(ptr noundef %7)
  store ptr %8, ptr %5, align 8
  %9 = icmp eq ptr null, %8
  br i1 %9, label %10, label %25

10:                                               ; preds = %2
  br label %11

11:                                               ; preds = %10
  br label %12

12:                                               ; preds = %11
  br label %13

13:                                               ; preds = %12
  %14 = load i64, ptr @H5E_SYM_g, align 8
  %15 = load i64, ptr @H5E_CANTCREATE_g, align 8
  %16 = call i32 (ptr, ptr, i32, i64, i64, ptr, ...) @H5E_printf_stack(ptr noundef @.str.1, ptr noundef @__func__.H5G__build_fullpath, i32 noundef 267, i64 noundef %14, i64 noundef %15, ptr noundef @.str.16)
  br label %17

17:                                               ; preds = %13
  store i8 1, ptr %6, align 1
  %18 = load i8, ptr %6, align 1
  %19 = trunc i8 %18 to i1
  %20 = zext i1 %19 to i8
  store i8 %20, ptr %6, align 1
  br label %21

21:                                               ; preds = %17
  br label %22

22:                                               ; preds = %21
  store ptr null, ptr %5, align 8
  br label %41

23:                                               ; No predecessors!
  br label %24

24:                                               ; preds = %23
  br label %25

25:                                               ; preds = %24, %2
  %26 = load ptr, ptr %3, align 8
  %27 = load ptr, ptr %3, align 8
  %28 = call i64 @strlen(ptr noundef %27) #6
  %29 = sub i64 %28, 1
  %30 = getelementptr inbounds i8, ptr %26, i64 %29
  %31 = load i8, ptr %30, align 1
  %32 = sext i8 %31 to i32
  %33 = icmp ne i32 %32, 47
  br i1 %33, label %34, label %37

34:                                               ; preds = %25
  %35 = load ptr, ptr %5, align 8
  %36 = call i32 @H5RS_aputc(ptr noundef %35, i32 noundef 47)
  br label %37

37:                                               ; preds = %34, %25
  %38 = load ptr, ptr %5, align 8
  %39 = load ptr, ptr %4, align 8
  %40 = call i32 @H5RS_acat(ptr noundef %38, ptr noundef %39)
  br label %41

41:                                               ; preds = %37, %22
  %42 = load ptr, ptr %5, align 8
  ret ptr %42
}

; Function Attrs: nounwind uwtable
define ptr @H5G_build_fullpath_refstr_str(ptr noundef %0, ptr noundef %1) #0 {
  %3 = alloca ptr, align 8
  %4 = alloca ptr, align 8
  %5 = alloca ptr, align 8
  %6 = alloca ptr, align 8
  store ptr %0, ptr %3, align 8
  store ptr %1, ptr %4, align 8
  store ptr null, ptr %6, align 8
  %7 = load ptr, ptr %3, align 8
  %8 = call ptr @H5RS_get_str(ptr noundef %7)
  store ptr %8, ptr %5, align 8
  %9 = load ptr, ptr %5, align 8
  %10 = load ptr, ptr %4, align 8
  %11 = call ptr @H5G__build_fullpath(ptr noundef %9, ptr noundef %10)
  store ptr %11, ptr %6, align 8
  %12 = load ptr, ptr %6, align 8
  ret ptr %12
}