; Function Attrs: nounwind uwtable
define ptr @H5G_build_fullpath_refstr_str(ptr noundef %0, ptr noundef %1) local_unnamed_addr #2 {
  %3 = tail call ptr @H5RS_get_str(ptr noundef %0) #10
  %4 = tail call ptr @H5RS_create(ptr noundef %3) #10
  %5 = icmp eq ptr %4, null
  br i1 %5, label %6, label %10

6:                                                ; preds = %2
  %7 = load i64, ptr @H5E_SYM_g, align 8
  %8 = load i64, ptr @H5E_CANTCREATE_g, align 8
  %9 = tail call i32 (ptr, ptr, i32, i64, i64, ptr, ...) @H5E_printf_stack(ptr noundef nonnull @.str.1, ptr noundef nonnull @__func__.H5G__build_fullpath, i32 noundef 267, i64 noundef %7, i64 noundef %8, ptr noundef nonnull @.str.16) #10
  br label %H5G__build_fullpath.exit

10:                                               ; preds = %2
  %11 = tail call i64 @strlen(ptr noundef nonnull dereferenceable(1) %3) #9
  %12 = getelementptr i8, ptr %3, i64 %11
  %13 = getelementptr i8, ptr %12, i64 -1
  %14 = load i8, ptr %13, align 1
  %.not.i = icmp eq i8 %14, 47
  br i1 %.not.i, label %17, label %15

15:                                               ; preds = %10
  %16 = tail call i32 @H5RS_aputc(ptr noundef nonnull %4, i32 noundef 47) #10
  br label %17

17:                                               ; preds = %15, %10
  %18 = tail call i32 @H5RS_acat(ptr noundef nonnull %4, ptr noundef %1) #10
  br label %H5G__build_fullpath.exit

H5G__build_fullpath.exit:                         ; preds = %6, %17
  ret ptr %4
}